; Function Attrs: nofree norecurse nosync nounwind ssp memory(argmem: readwrite) uwtable
define internal noundef i32 @crypto_onetimeauth_poly1305_donna_update(ptr noundef captures(none) %0, ptr noundef readonly captures(none) %1, i64 noundef %2) #2 {
  %4 = getelementptr inbounds nuw i8, ptr %0, i64 64
  %5 = load i64, ptr %4, align 8
  %.not.i = icmp eq i64 %5, 0
  br i1 %.not.i, label %23, label %6

6:                                                ; preds = %3
  %7 = sub i64 16, %5
  %spec.select.i = tail call i64 @llvm.umin.i64(i64 %7, i64 %2)
  %.not55.i = icmp eq i64 %spec.select.i, 0
  br i1 %.not55.i, label %._crit_edge.i, label %.lr.ph.i

.lr.ph.i:                                         ; preds = %6
  %8 = getelementptr inbounds nuw i8, ptr %0, i64 72
  br label %9

9:                                                ; preds = %9, %.lr.ph.i
  %.04553.i = phi i64 [ 0, %.lr.ph.i ], [ %15, %9 ]
  %10 = getelementptr i8, ptr %1, i64 %.04553.i
  %11 = load i8, ptr %10, align 1
  %12 = load i64, ptr %4, align 8
  %13 = add i64 %12, %.04553.i
  %14 = getelementptr [16 x i8], ptr %8, i64 0, i64 %13
  store i8 %11, ptr %14, align 1
  %15 = add nuw i64 %.04553.i, 1
  %exitcond.not.i = icmp eq i64 %15, %spec.select.i
  br i1 %exitcond.not.i, label %._crit_edge.loopexit.i, label %9, !llvm.loop !7

._crit_edge.loopexit.i:                           ; preds = %9
  %.pre.i = load i64, ptr %4, align 8
  br label %._crit_edge.i

._crit_edge.i:                                    ; preds = %._crit_edge.loopexit.i, %6
  %16 = phi i64 [ %.pre.i, %._crit_edge.loopexit.i ], [ %5, %6 ]
  %17 = add i64 %16, %spec.select.i
  store i64 %17, ptr %4, align 8
  %18 = icmp ugt i64 %17, 15
  br i1 %18, label %19, label %poly1305_update.exit

19:                                               ; preds = %._crit_edge.i
  %20 = getelementptr i8, ptr %1, i64 %spec.select.i
  %21 = sub i64 %2, %spec.select.i
  %22 = getelementptr inbounds nuw i8, ptr %0, i64 72
  tail call fastcc void @poly1305_blocks(ptr noundef nonnull %0, ptr noundef nonnull %22, i64 noundef 16)
  store i64 0, ptr %4, align 8
  br label %23

23:                                               ; preds = %19, %3
  %.047.i = phi i64 [ %21, %19 ], [ %2, %3 ]
  %.0.i = phi ptr [ %20, %19 ], [ %1, %3 ]
  %24 = icmp ugt i64 %.047.i, 15
  br i1 %24, label %25, label %29

25:                                               ; preds = %23
  %26 = and i64 %.047.i, -16
  tail call fastcc void @poly1305_blocks(ptr noundef nonnull %0, ptr noundef %.0.i, i64 noundef %26)
  %27 = getelementptr i8, ptr %.0.i, i64 %26
  %28 = and i64 %.047.i, 15
  br label %29

29:                                               ; preds = %25, %23
  %.148.i = phi i64 [ %28, %25 ], [ %.047.i, %23 ]
  %.1.i = phi ptr [ %27, %25 ], [ %.0.i, %23 ]
  %.not52.i = icmp eq i64 %.148.i, 0
  br i1 %.not52.i, label %poly1305_update.exit, label %.preheader.i

.preheader.i:                                     ; preds = %29
  %30 = getelementptr inbounds nuw i8, ptr %0, i64 72
  br label %31

31:                                               ; preds = %31, %.preheader.i
  %.14654.i = phi i64 [ 0, %.preheader.i ], [ %37, %31 ]
  %32 = getelementptr i8, ptr %.1.i, i64 %.14654.i
  %33 = load i8, ptr %32, align 1
  %34 = load i64, ptr %4, align 8
  %35 = add i64 %34, %.14654.i
  %36 = getelementptr [16 x i8], ptr %30, i64 0, i64 %35
  store i8 %33, ptr %36, align 1
  %37 = add nuw nsw i64 %.14654.i, 1
  %exitcond56.not.i = icmp eq i64 %37, %.148.i
  br i1 %exitcond56.not.i, label %38, label %31, !llvm.loop !6

38:                                               ; preds = %31
  %39 = load i64, ptr %4, align 8
  %40 = add i64 %39, %.148.i
  store i64 %40, ptr %4, align 8
  br label %poly1305_update.exit

poly1305_update.exit:                             ; preds = %._crit_edge.i, %29, %38
  ret i32 0
}